target datalayout = "e-m:e-p270:32:32-p271:32:32-p272:64:64-i64:64-i128:128-f80:128-n8:16:32:64-S128"
target triple = "x86_64-pc-linux-gnu"

%struct.quic_port_st = type { ptr, %struct.anon, ptr, ptr, ptr, ptr, ptr, ptr, %struct.ossl_list_st_ch, %struct.ossl_list_st_incoming_ch, ptr, ptr, ptr, ptr, i8, i8, i16, ptr }
%struct.anon = type { ptr, ptr }
%struct.ossl_list_st_ch = type { ptr, ptr, i64 }
%struct.ossl_list_st_incoming_ch = type { ptr, ptr, i64 }
%struct.quic_engine_st = type { ptr, ptr, ptr, ptr, ptr, %struct.quic_reactor_st, %struct.ossl_list_st_port, i8 }
%struct.quic_reactor_st = type { %struct.bio_poll_descriptor_st, %struct.bio_poll_descriptor_st, %struct.OSSL_TIME, ptr, ptr, ptr, %struct.rio_notifier_st, ptr, i64, i8 }
%struct.bio_poll_descriptor_st = type { i32, %union.anon.6 }
%union.anon.6 = type { ptr }
%struct.OSSL_TIME = type { i64 }
%struct.rio_notifier_st = type { i32, i32 }
%struct.ossl_list_st_port = type { ptr, ptr, i64 }

; Function Attrs: inlinehint nounwind uwtable
define internal void @ossl_list_port_remove(ptr noundef %0, ptr noundef %1) #3 {
  %3 = alloca ptr, align 8
  %4 = alloca ptr, align 8
  store ptr %0, ptr %3, align 8, !tbaa !208
  store ptr %1, ptr %4, align 8, !tbaa !8
  %5 = load ptr, ptr %3, align 8, !tbaa !208
  %6 = getelementptr inbounds nuw %struct.ossl_list_st_port, ptr %5, i32 0, i32 0
  %7 = load ptr, ptr %6, align 8, !tbaa !213
  %8 = load ptr, ptr %4, align 8, !tbaa !8
  %9 = icmp eq ptr %7, %8
  br i1 %9, label %10, label %17

10:                                               ; preds = %2
  %11 = load ptr, ptr %4, align 8, !tbaa !8
  %12 = getelementptr inbounds nuw %struct.quic_port_st, ptr %11, i32 0, i32 1
  %13 = getelementptr inbounds nuw %struct.anon, ptr %12, i32 0, i32 0
  %14 = load ptr, ptr %13, align 8, !tbaa !211
  %15 = load ptr, ptr %3, align 8, !tbaa !208
  %16 = getelementptr inbounds nuw %struct.ossl_list_st_port, ptr %15, i32 0, i32 0
  store ptr %14, ptr %16, align 8, !tbaa !213
  br label %17

17:                                               ; preds = %10, %2
  %18 = load ptr, ptr %3, align 8, !tbaa !208
  %19 = getelementptr inbounds nuw %struct.ossl_list_st_port, ptr %18, i32 0, i32 1
  %20 = load ptr, ptr %19, align 8, !tbaa !210
  %21 = load ptr, ptr %4, align 8, !tbaa !8
  %22 = icmp eq ptr %20, %21
  br i1 %22, label %23, label %30

23:                                               ; preds = %17
  %24 = load ptr, ptr %4, align 8, !tbaa !8
  %25 = getelementptr inbounds nuw %struct.quic_port_st, ptr %24, i32 0, i32 1
  %26 = getelementptr inbounds nuw %struct.anon, ptr %25, i32 0, i32 1
  %27 = load ptr, ptr %26, align 8, !tbaa !212
  %28 = load ptr, ptr %3, align 8, !tbaa !208
  %29 = getelementptr inbounds nuw %struct.ossl_list_st_port, ptr %28, i32 0, i32 1
  store ptr %27, ptr %29, align 8, !tbaa !210
  br label %30

30:                                               ; preds = %23, %17
  %31 = load ptr, ptr %4, align 8, !tbaa !8
  %32 = getelementptr inbounds nuw %struct.quic_port_st, ptr %31, i32 0, i32 1
  %33 = getelementptr inbounds nuw %struct.anon, ptr %32, i32 0, i32 1
  %34 = load ptr, ptr %33, align 8, !tbaa !212
  %35 = icmp ne ptr %34, null
  br i1 %35, label %36, label %47

36:                                               ; preds = %30
  %37 = load ptr, ptr %4, align 8, !tbaa !8
  %38 = getelementptr inbounds nuw %struct.quic_port_st, ptr %37, i32 0, i32 1
  %39 = getelementptr inbounds nuw %struct.anon, ptr %38, i32 0, i32 0
  %40 = load ptr, ptr %39, align 8, !tbaa !211
  %41 = load ptr, ptr %4, align 8, !tbaa !8
  %42 = getelementptr inbounds nuw %struct.quic_port_st, ptr %41, i32 0, i32 1
  %43 = getelementptr inbounds nuw %struct.anon, ptr %42, i32 0, i32 1
  %44 = load ptr, ptr %43, align 8, !tbaa !212
  %45 = getelementptr inbounds nuw %struct.quic_port_st, ptr %44, i32 0, i32 1
  %46 = getelementptr inbounds nuw %struct.anon, ptr %45, i32 0, i32 0
  store ptr %40, ptr %46, align 8, !tbaa !211
  br label %47

47:                                               ; preds = %36, %30
  %48 = load ptr, ptr %4, align 8, !tbaa !8
  %49 = getelementptr inbounds nuw %struct.quic_port_st, ptr %48, i32 0, i32 1
  %50 = getelementptr inbounds nuw %struct.anon, ptr %49, i32 0, i32 0
  %51 = load ptr, ptr %50, align 8, !tbaa !211
  %52 = icmp ne ptr %51, null
  br i1 %52, label %53, label %64

53:                                               ; preds = %47
  %54 = load ptr, ptr %4, align 8, !tbaa !8
  %55 = getelementptr inbounds nuw %struct.quic_port_st, ptr %54, i32 0, i32 1
  %56 = getelementptr inbounds nuw %struct.anon, ptr %55, i32 0, i32 1
  %57 = load ptr, ptr %56, align 8, !tbaa !212
  %58 = load ptr, ptr %4, align 8, !tbaa !8
  %59 = getelementptr inbounds nuw %struct.quic_port_st, ptr %58, i32 0, i32 1
  %60 = getelementptr inbounds nuw %struct.anon, ptr %59, i32 0, i32 0
  %61 = load ptr, ptr %60, align 8, !tbaa !211
  %62 = getelementptr inbounds nuw %struct.quic_port_st, ptr %61, i32 0, i32 1
  %63 = getelementptr inbounds nuw %struct.anon, ptr %62, i32 0, i32 1
  store ptr %57, ptr %63, align 8, !tbaa !212
  br label %64

64:                                               ; preds = %53, %47
  %65 = load ptr, ptr %3, align 8, !tbaa !208
  %66 = getelementptr inbounds nuw %struct.ossl_list_st_port, ptr %65, i32 0, i32 2
  %67 = load i64, ptr %66, align 8, !tbaa !214
  %68 = add i64 %67, -1
  store i64 %68, ptr %66, align 8, !tbaa !214
  %69 = load ptr, ptr %4, align 8, !tbaa !8
  %70 = getelementptr inbounds nuw %struct.quic_port_st, ptr %69, i32 0, i32 1
  call void @llvm.memset.p0.i64(ptr align 8 %70, i8 0, i64 16, i1 false)
  ret void
}

; Function Attrs: nounwind uwtable
define internal void @port_cleanup(ptr noundef %0) #0 {
  %2 = alloca ptr, align 8
  store ptr %0, ptr %2, align 8, !tbaa !8
  %3 = load ptr, ptr %2, align 8, !tbaa !8
  %4 = getelementptr inbounds nuw %struct.quic_port_st, ptr %3, i32 0, i32 7
  %5 = load ptr, ptr %4, align 8, !tbaa !43
  call void @ossl_quic_demux_free(ptr noundef %5)
  %6 = load ptr, ptr %2, align 8, !tbaa !8
  %7 = getelementptr inbounds nuw %struct.quic_port_st, ptr %6, i32 0, i32 7
  store ptr null, ptr %7, align 8, !tbaa !43
  %8 = load ptr, ptr %2, align 8, !tbaa !8
  %9 = getelementptr inbounds nuw %struct.quic_port_st, ptr %8, i32 0, i32 12
  %10 = load ptr, ptr %9, align 8, !tbaa !55
  call void @ossl_quic_srtm_free(ptr noundef %10)
  %11 = load ptr, ptr %2, align 8, !tbaa !8
  %12 = getelementptr inbounds nuw %struct.quic_port_st, ptr %11, i32 0, i32 12
  store ptr null, ptr %12, align 8, !tbaa !55
  %13 = load ptr, ptr %2, align 8, !tbaa !8
  %14 = getelementptr inbounds nuw %struct.quic_port_st, ptr %13, i32 0, i32 11
  %15 = load ptr, ptr %14, align 8, !tbaa !56
  call void @ossl_quic_lcidm_free(ptr noundef %15)
  %16 = load ptr, ptr %2, align 8, !tbaa !8
  %17 = getelementptr inbounds nuw %struct.quic_port_st, ptr %16, i32 0, i32 11
  store ptr null, ptr %17, align 8, !tbaa !56
  %18 = load ptr, ptr %2, align 8, !tbaa !8
  %19 = getelementptr inbounds nuw %struct.quic_port_st, ptr %18, i32 0, i32 13
  %20 = load ptr, ptr %19, align 8, !tbaa !42
  call void @OSSL_ERR_STATE_free(ptr noundef %20)
  %21 = load ptr, ptr %2, align 8, !tbaa !8
  %22 = getelementptr inbounds nuw %struct.quic_port_st, ptr %21, i32 0, i32 13
  store ptr null, ptr %22, align 8, !tbaa !42
  %23 = load ptr, ptr %2, align 8, !tbaa !8
  %24 = getelementptr inbounds nuw %struct.quic_port_st, ptr %23, i32 0, i32 16
  %25 = load i16, ptr %24, align 2
  %26 = lshr i16 %25, 5
  %27 = and i16 %26, 1
  %28 = zext i16 %27 to i32
  %29 = icmp ne i32 %28, 0
  br i1 %29, label %30, label %41

30:                                               ; preds = %1
  %31 = load ptr, ptr %2, align 8, !tbaa !8
  %32 = getelementptr inbounds nuw %struct.quic_port_st, ptr %31, i32 0, i32 0
  %33 = load ptr, ptr %32, align 8, !tbaa !15
  %34 = getelementptr inbounds nuw %struct.quic_engine_st, ptr %33, i32 0, i32 6
  %35 = load ptr, ptr %2, align 8, !tbaa !8
  call void @ossl_list_port_remove(ptr noundef %34, ptr noundef %35)
  %36 = load ptr, ptr %2, align 8, !tbaa !8
  %37 = getelementptr inbounds nuw %struct.quic_port_st, ptr %36, i32 0, i32 16
  %38 = load i16, ptr %37, align 2
  %39 = and i16 %38, -33
  %40 = or i16 %39, 0
  store i16 %40, ptr %37, align 2
  br label %41

41:                                               ; preds = %30, %1
  %42 = load ptr, ptr %2, align 8, !tbaa !8
  %43 = getelementptr inbounds nuw %struct.quic_port_st, ptr %42, i32 0, i32 17
  %44 = load ptr, ptr %43, align 8, !tbaa !59
  call void @EVP_CIPHER_CTX_free(ptr noundef %44)
  %45 = load ptr, ptr %2, align 8, !tbaa !8
  %46 = getelementptr inbounds nuw %struct.quic_port_st, ptr %45, i32 0, i32 17
  store ptr null, ptr %46, align 8, !tbaa !59
  ret void
}