; Function Attrs: nounwind uwtable
define internal fastcc void @port_cleanup(ptr noundef nonnull captures(address) %0) unnamed_addr #0 {
  %2 = getelementptr inbounds nuw i8, ptr %0, i64 64
  %3 = load ptr, ptr %2, align 8, !tbaa !34
  tail call void @ossl_quic_demux_free(ptr noundef %3) #11
  store ptr null, ptr %2, align 8, !tbaa !34
  %4 = getelementptr inbounds nuw i8, ptr %0, i64 136
  %5 = load ptr, ptr %4, align 8, !tbaa !47
  tail call void @ossl_quic_srtm_free(ptr noundef %5) #11
  store ptr null, ptr %4, align 8, !tbaa !47
  %6 = getelementptr inbounds nuw i8, ptr %0, i64 128
  %7 = load ptr, ptr %6, align 8, !tbaa !48
  tail call void @ossl_quic_lcidm_free(ptr noundef %7) #11
  store ptr null, ptr %6, align 8, !tbaa !48
  %8 = getelementptr inbounds nuw i8, ptr %0, i64 144
  %9 = load ptr, ptr %8, align 8, !tbaa !33
  tail call void @OSSL_ERR_STATE_free(ptr noundef %9) #11
  store ptr null, ptr %8, align 8, !tbaa !33
  %10 = getelementptr inbounds nuw i8, ptr %0, i64 154
  %11 = load i16, ptr %10, align 2
  %12 = and i16 %11, 32
  %.not = icmp eq i16 %12, 0
  br i1 %.not, label %39, label %13

13:                                               ; preds = %1
  %14 = load ptr, ptr %0, align 8, !tbaa !11
  %15 = getelementptr inbounds nuw i8, ptr %14, i64 136
  %16 = load ptr, ptr %15, align 8, !tbaa !54
  %17 = icmp eq ptr %16, %0
  br i1 %17, label %18, label %21

18:                                               ; preds = %13
  %19 = getelementptr inbounds nuw i8, ptr %0, i64 8
  %20 = load ptr, ptr %19, align 8, !tbaa !52
  store ptr %20, ptr %15, align 8, !tbaa !54
  br label %21

21:                                               ; preds = %18, %13
  %22 = getelementptr inbounds nuw i8, ptr %14, i64 144
  %23 = load ptr, ptr %22, align 8, !tbaa !51
  %24 = icmp eq ptr %23, %0
  %25 = getelementptr inbounds nuw i8, ptr %0, i64 16
  %26 = load ptr, ptr %25, align 8, !tbaa !53
  br i1 %24, label %27, label %._crit_edge.i

27:                                               ; preds = %21
  store ptr %26, ptr %22, align 8, !tbaa !51
  br label %._crit_edge.i

._crit_edge.i:                                    ; preds = %27, %21
  %28 = getelementptr inbounds nuw i8, ptr %0, i64 8
  %.not.i = icmp eq ptr %26, null
  %.pre19.i = load ptr, ptr %28, align 8, !tbaa !52
  br i1 %.not.i, label %31, label %29

29:                                               ; preds = %._crit_edge.i
  %30 = getelementptr inbounds nuw i8, ptr %26, i64 8
  store ptr %.pre19.i, ptr %30, align 8, !tbaa !52
  br label %31

31:                                               ; preds = %29, %._crit_edge.i
  %.not18.i = icmp eq ptr %.pre19.i, null
  br i1 %.not18.i, label %ossl_list_port_remove.exit, label %32

32:                                               ; preds = %31
  %33 = getelementptr inbounds nuw i8, ptr %.pre19.i, i64 16
  store ptr %26, ptr %33, align 8, !tbaa !53
  br label %ossl_list_port_remove.exit

ossl_list_port_remove.exit:                       ; preds = %31, %32
  %34 = getelementptr inbounds nuw i8, ptr %14, i64 152
  %35 = load i64, ptr %34, align 8, !tbaa !55
  %36 = add i64 %35, -1
  store i64 %36, ptr %34, align 8, !tbaa !55
  tail call void @llvm.memset.p0.i64(ptr noundef nonnull align 8 dereferenceable(16) %28, i8 0, i64 16, i1 false)
  %37 = load i16, ptr %10, align 2
  %38 = and i16 %37, -33
  store i16 %38, ptr %10, align 2
  br label %39

39:                                               ; preds = %ossl_list_port_remove.exit, %1
  %40 = getelementptr inbounds nuw i8, ptr %0, i64 160
  %41 = load ptr, ptr %40, align 8, !tbaa !56
  tail call void @EVP_CIPHER_CTX_free(ptr noundef %41) #11
  store ptr null, ptr %40, align 8, !tbaa !56
  ret void
}